target datalayout = "e-m:e-p270:32:32-p271:32:32-p272:64:64-i64:64-i128:128-f80:128-n8:16:32:64-S128"
target triple = "x86_64-pc-linux-gnu"

%class.Phase = type { i32, ptr }
%class.LRG = type { double, double, double, ptr, i32, i32, i32, i32, i32, i32, %class.RegMask, i32, i16, i32, i16, i16 }
%class.RegMask = type { %union.anon, i32, i32 }
%union.anon = type { [11 x i64] }
%class.VectorSet = type { i32, ptr, i32, ptr }
%class.PhaseChaitin = type <{ %class.PhaseRegAlloc, i32, i32, ptr, ptr, %class.VectorSet, %class.VectorSet, i32, i32, i32, i32, i32, [4 x i8], ptr, double, %class.LiveRangeMap, i8, [3 x i8], %"class.PhaseChaitin::Pressure", %"class.PhaseChaitin::Pressure", %"class.PhaseChaitin::Pressure", %"class.PhaseChaitin::Pressure", [4 x i8] }>
%class.PhaseRegAlloc = type { ptr, %class.Phase, ptr, i32, %class.VectorSet, ptr, i32, i32, ptr }
%class.LiveRangeMap = type { i32, %class.GrowableArray, %class.GrowableArray }
%class.GrowableArray = type { %class.GrowableArrayWithAllocator, %class.GrowableArrayMetadata }
%class.GrowableArrayWithAllocator = type { %class.GrowableArrayView }
%class.GrowableArrayView = type { %class.GrowableArrayBase, ptr }
%class.GrowableArrayBase = type { i32, i32 }
%class.GrowableArrayMetadata = type { i64 }
%"class.PhaseChaitin::Pressure" = type { i32, i32, i32, i32, i32 }

@_ZN7Matcher16idealreg2regmaskE = external global [0 x ptr], align 8
@_ZN19Abstract_VM_Version9_featuresE = external global i64, align 8

; Function Attrs: mustprogress nounwind uwtable
define linkonce_odr hidden noundef zeroext i1 @_ZN10VM_Version13supports_evexEv() #1 comdat align 2 {
  %1 = load i64, ptr @_ZN19Abstract_VM_Version9_featuresE, align 8
  %2 = and i64 %1, 134217728
  %3 = icmp ne i64 %2, 0
  ret i1 %3
}

; Function Attrs: mustprogress nounwind uwtable
define linkonce_odr hidden noundef i32 @_Z4MAX2IjET_S0_S0_(i32 noundef %0, i32 noundef %1) #1 comdat {
  %3 = alloca i32, align 4
  %4 = alloca i32, align 4
  store i32 %0, ptr %3, align 4
  store i32 %1, ptr %4, align 4
  %5 = load i32, ptr %3, align 4
  %6 = load i32, ptr %4, align 4
  %7 = icmp ugt i32 %5, %6
  br i1 %7, label %8, label %10

8:                                                ; preds = %2
  %9 = load i32, ptr %3, align 4
  br label %12

10:                                               ; preds = %2
  %11 = load i32, ptr %4, align 4
  br label %12

12:                                               ; preds = %10, %8
  %13 = phi i32 [ %9, %8 ], [ %11, %10 ]
  ret i32 %13
}

; Function Attrs: mustprogress nounwind uwtable
define linkonce_odr hidden noundef i32 @_Z4MIN2IjET_S0_S0_(i32 noundef %0, i32 noundef %1) #1 comdat {
  %3 = alloca i32, align 4
  %4 = alloca i32, align 4
  store i32 %0, ptr %3, align 4
  store i32 %1, ptr %4, align 4
  %5 = load i32, ptr %3, align 4
  %6 = load i32, ptr %4, align 4
  %7 = icmp ult i32 %5, %6
  br i1 %7, label %8, label %10

8:                                                ; preds = %2
  %9 = load i32, ptr %3, align 4
  br label %12

10:                                               ; preds = %2
  %11 = load i32, ptr %4, align 4
  br label %12

12:                                               ; preds = %10, %8
  %13 = phi i32 [ %9, %8 ], [ %11, %10 ]
  ret i32 %13
}

; Function Attrs: mustprogress nounwind uwtable
define linkonce_odr hidden noundef i32 @_ZNK3LRG12reg_pressureEv(ptr noundef nonnull align 8 dereferenceable(168) %0) #1 comdat align 2 {
  %2 = alloca ptr, align 8
  store ptr %0, ptr %2, align 8
  %3 = load ptr, ptr %2, align 8
  %4 = getelementptr inbounds %class.LRG, ptr %3, i32 0, i32 14
  %5 = load i16, ptr %4, align 4
  %6 = zext i16 %5 to i32
  ret i32 %6
}

; Function Attrs: mustprogress nounwind uwtable
define linkonce_odr hidden noundef i32 @_ZNK3LRG9mask_sizeEv(ptr noundef nonnull align 8 dereferenceable(168) %0) #1 comdat align 2 {
  %2 = alloca ptr, align 8
  store ptr %0, ptr %2, align 8
  %3 = load ptr, ptr %2, align 8
  %4 = getelementptr inbounds %class.LRG, ptr %3, i32 0, i32 11
  %5 = load i32, ptr %4, align 8
  ret i32 %5
}

; Function Attrs: mustprogress nounwind uwtable
define linkonce_odr hidden noundef zeroext i1 @_ZN7Matcher22has_predicated_vectorsEv() #1 comdat align 2 {
  %1 = call noundef zeroext i1 @_ZN10VM_Version13supports_evexEv()
  ret i1 %1
}

; Function Attrs: mustprogress nounwind uwtable
define linkonce_odr hidden noundef zeroext i1 @_ZNK7RegMask7overlapERKS_(ptr noundef nonnull align 8 dereferenceable(96) %0, ptr noundef nonnull align 8 dereferenceable(96) %1) #1 comdat align 2 {
  %3 = alloca ptr, align 8
  %4 = alloca ptr, align 8
  %5 = alloca i32, align 4
  %6 = alloca i32, align 4
  %7 = alloca i64, align 8
  %8 = alloca i32, align 4
  store ptr %0, ptr %3, align 8
  store ptr %1, ptr %4, align 8
  %9 = load ptr, ptr %3, align 8
  %10 = getelementptr inbounds %class.RegMask, ptr %9, i32 0, i32 2
  %11 = load i32, ptr %10, align 4
  %12 = load ptr, ptr %4, align 8
  %13 = getelementptr inbounds %class.RegMask, ptr %12, i32 0, i32 2
  %14 = load i32, ptr %13, align 4
  %15 = call noundef i32 @_Z4MIN2IjET_S0_S0_(i32 noundef %11, i32 noundef %14)
  store i32 %15, ptr %5, align 4
  %16 = getelementptr inbounds %class.RegMask, ptr %9, i32 0, i32 1
  %17 = load i32, ptr %16, align 8
  %18 = load ptr, ptr %4, align 8
  %19 = getelementptr inbounds %class.RegMask, ptr %18, i32 0, i32 1
  %20 = load i32, ptr %19, align 8
  %21 = call noundef i32 @_Z4MAX2IjET_S0_S0_(i32 noundef %17, i32 noundef %20)
  store i32 %21, ptr %6, align 4
  store i64 0, ptr %7, align 8
  %22 = load i32, ptr %6, align 4
  store i32 %22, ptr %8, align 4
  br label %23

23:                                               ; preds = %42, %2
  %24 = load i32, ptr %8, align 4
  %25 = load i32, ptr %5, align 4
  %26 = icmp ule i32 %24, %25
  br i1 %26, label %27, label %45

27:                                               ; preds = %23
  %28 = getelementptr inbounds %class.RegMask, ptr %9, i32 0, i32 0
  %29 = load i32, ptr %8, align 4
  %30 = zext i32 %29 to i64
  %31 = getelementptr inbounds [11 x i64], ptr %28, i64 0, i64 %30
  %32 = load i64, ptr %31, align 8
  %33 = load ptr, ptr %4, align 8
  %34 = getelementptr inbounds %class.RegMask, ptr %33, i32 0, i32 0
  %35 = load i32, ptr %8, align 4
  %36 = zext i32 %35 to i64
  %37 = getelementptr inbounds [11 x i64], ptr %34, i64 0, i64 %36
  %38 = load i64, ptr %37, align 8
  %39 = and i64 %32, %38
  %40 = load i64, ptr %7, align 8
  %41 = or i64 %40, %39
  store i64 %41, ptr %7, align 8
  br label %42

42:                                               ; preds = %27
  %43 = load i32, ptr %8, align 4
  %44 = add i32 %43, 1
  store i32 %44, ptr %8, align 4
  br label %23, !llvm.loop !16

45:                                               ; preds = %23
  %46 = load i64, ptr %7, align 8
  %47 = icmp ne i64 %46, 0
  ret i1 %47
}

; Function Attrs: mustprogress nounwind uwtable
define linkonce_odr hidden noundef nonnull align 8 dereferenceable(96) ptr @_ZNK3LRG4maskEv(ptr noundef nonnull align 8 dereferenceable(168) %0) #1 comdat align 2 {
  %2 = alloca ptr, align 8
  store ptr %0, ptr %2, align 8
  %3 = load ptr, ptr %2, align 8
  %4 = getelementptr inbounds %class.LRG, ptr %3, i32 0, i32 10
  ret ptr %4
}

; Function Attrs: mustprogress nounwind uwtable
define linkonce_odr hidden void @_ZN12PhaseChaitin8Pressure5lowerER3LRGRj(ptr noundef nonnull align 4 dereferenceable(20) %0, ptr noundef nonnull align 8 dereferenceable(168) %1, ptr noundef nonnull align 4 dereferenceable(4) %2) #1 comdat align 2 {
  %4 = alloca ptr, align 8
  %5 = alloca ptr, align 8
  %6 = alloca ptr, align 8
  store ptr %0, ptr %4, align 8
  store ptr %1, ptr %5, align 8
  store ptr %2, ptr %6, align 8
  %7 = load ptr, ptr %4, align 8
  %8 = load ptr, ptr %5, align 8
  %9 = call noundef i32 @_ZNK3LRG12reg_pressureEv(ptr noundef nonnull align 8 dereferenceable(168) %8)
  %10 = getelementptr inbounds %"class.PhaseChaitin::Pressure", ptr %7, i32 0, i32 0
  %11 = load i32, ptr %10, align 4
  %12 = sub i32 %11, %9
  store i32 %12, ptr %10, align 4
  %13 = getelementptr inbounds %"class.PhaseChaitin::Pressure", ptr %7, i32 0, i32 0
  %14 = load i32, ptr %13, align 4
  %15 = getelementptr inbounds %"class.PhaseChaitin::Pressure", ptr %7, i32 0, i32 3
  %16 = load i32, ptr %15, align 4
  %17 = icmp eq i32 %14, %16
  br i1 %17, label %18, label %22

18:                                               ; preds = %3
  %19 = load ptr, ptr %6, align 8
  %20 = load i32, ptr %19, align 4
  %21 = getelementptr inbounds %"class.PhaseChaitin::Pressure", ptr %7, i32 0, i32 1
  store i32 %20, ptr %21, align 4
  br label %22

22:                                               ; preds = %18, %3
  ret void
}

; Function Attrs: mustprogress nounwind uwtable
define linkonce_odr hidden noundef zeroext i1 @_ZNK3LRG18is_float_or_vectorEv(ptr noundef nonnull align 8 dereferenceable(168) %0) #1 comdat align 2 {
  %2 = alloca ptr, align 8
  store ptr %0, ptr %2, align 8
  %3 = load ptr, ptr %2, align 8
  %4 = getelementptr inbounds %class.LRG, ptr %3, i32 0, i32 15
  %5 = load i16, ptr %4, align 2
  %6 = lshr i16 %5, 1
  %7 = and i16 %6, 1
  %8 = zext i16 %7 to i32
  %9 = icmp ne i32 %8, 0
  br i1 %9, label %17, label %10

10:                                               ; preds = %1
  %11 = getelementptr inbounds %class.LRG, ptr %3, i32 0, i32 15
  %12 = load i16, ptr %11, align 2
  %13 = lshr i16 %12, 2
  %14 = and i16 %13, 1
  %15 = zext i16 %14 to i32
  %16 = icmp ne i32 %15, 0
  br label %17

17:                                               ; preds = %10, %1
  %18 = phi i1 [ true, %1 ], [ %16, %10 ]
  ret i1 %18
}

; Function Attrs: mustprogress nounwind uwtable
define linkonce_odr hidden noundef zeroext i1 @_ZNK3LRG23mask_is_nonempty_and_upEv(ptr noundef nonnull align 8 dereferenceable(168) %0) #1 comdat align 2 {
  %2 = alloca ptr, align 8
  store ptr %0, ptr %2, align 8
  %3 = load ptr, ptr %2, align 8
  %4 = call noundef nonnull align 8 dereferenceable(96) ptr @_ZNK3LRG4maskEv(ptr noundef nonnull align 8 dereferenceable(168) %3)
  %5 = call noundef zeroext i1 @_ZNK7RegMask5is_UPEv(ptr noundef nonnull align 8 dereferenceable(96) %4)
  br i1 %5, label %6, label %9

6:                                                ; preds = %1
  %7 = call noundef i32 @_ZNK3LRG9mask_sizeEv(ptr noundef nonnull align 8 dereferenceable(168) %3)
  %8 = icmp ne i32 %7, 0
  br label %9

9:                                                ; preds = %6, %1
  %10 = phi i1 [ false, %1 ], [ %8, %6 ]
  ret i1 %10
}

; Function Attrs: mustprogress nounwind uwtable
define hidden void @_ZN12PhaseChaitin14lower_pressureEP5BlockjR3LRGP8IndexSetRNS_8PressureES7_(ptr noundef nonnull align 8 dereferenceable(364) %0, ptr noundef %1, i32 noundef %2, ptr noundef nonnull align 8 dereferenceable(168) %3, ptr noundef %4, ptr noundef nonnull align 4 dereferenceable(20) %5, ptr noundef nonnull align 4 dereferenceable(20) %6) #1 align 2 {
  %8 = alloca ptr, align 8
  %9 = alloca ptr, align 8
  %10 = alloca i32, align 4
  %11 = alloca ptr, align 8
  %12 = alloca ptr, align 8
  %13 = alloca ptr, align 8
  %14 = alloca ptr, align 8
  %15 = alloca ptr, align 8
  store ptr %0, ptr %8, align 8
  store ptr %1, ptr %9, align 8
  store i32 %2, ptr %10, align 4
  store ptr %3, ptr %11, align 8
  store ptr %4, ptr %12, align 8
  store ptr %5, ptr %13, align 8
  store ptr %6, ptr %14, align 8
  %16 = load ptr, ptr %8, align 8
  %17 = load ptr, ptr %11, align 8
  %18 = call noundef zeroext i1 @_ZNK3LRG23mask_is_nonempty_and_upEv(ptr noundef nonnull align 8 dereferenceable(168) %17)
  br i1 %18, label %19, label %42

19:                                               ; preds = %7
  %20 = load ptr, ptr %11, align 8
  %21 = call noundef zeroext i1 @_ZNK3LRG18is_float_or_vectorEv(ptr noundef nonnull align 8 dereferenceable(168) %20)
  br i1 %21, label %22, label %25

22:                                               ; preds = %19
  %23 = load ptr, ptr %14, align 8
  %24 = load ptr, ptr %11, align 8
  call void @_ZN12PhaseChaitin8Pressure5lowerER3LRGRj(ptr noundef nonnull align 4 dereferenceable(20) %23, ptr noundef nonnull align 8 dereferenceable(168) %24, ptr noundef nonnull align 4 dereferenceable(4) %10)
  br label %41

25:                                               ; preds = %19
  %26 = load ptr, ptr %11, align 8
  %27 = call noundef nonnull align 8 dereferenceable(96) ptr @_ZNK3LRG4maskEv(ptr noundef nonnull align 8 dereferenceable(168) %26)
  store ptr %27, ptr %15, align 8
  %28 = load ptr, ptr %15, align 8
  %29 = load ptr, ptr getelementptr inbounds ([0 x ptr], ptr @_ZN7Matcher16idealreg2regmaskE, i64 0, i64 3), align 8
  %30 = call noundef zeroext i1 @_ZNK7RegMask7overlapERKS_(ptr noundef nonnull align 8 dereferenceable(96) %28, ptr noundef nonnull align 8 dereferenceable(96) %29)
  br i1 %30, label %37, label %31

31:                                               ; preds = %25
  %32 = call noundef zeroext i1 @_ZN7Matcher22has_predicated_vectorsEv()
  br i1 %32, label %33, label %40

33:                                               ; preds = %31
  %34 = load ptr, ptr %15, align 8
  %35 = load ptr, ptr getelementptr inbounds ([0 x ptr], ptr @_ZN7Matcher16idealreg2regmaskE, i64 0, i64 14), align 8
  %36 = call noundef zeroext i1 @_ZNK7RegMask7overlapERKS_(ptr noundef nonnull align 8 dereferenceable(96) %34, ptr noundef nonnull align 8 dereferenceable(96) %35)
  br i1 %36, label %37, label %40

37:                                               ; preds = %33, %25
  %38 = load ptr, ptr %13, align 8
  %39 = load ptr, ptr %11, align 8
  call void @_ZN12PhaseChaitin8Pressure5lowerER3LRGRj(ptr noundef nonnull align 4 dereferenceable(20) %38, ptr noundef nonnull align 8 dereferenceable(168) %39, ptr noundef nonnull align 4 dereferenceable(4) %10)
  br label %40

40:                                               ; preds = %37, %33, %31
  br label %41

41:                                               ; preds = %40, %22
  br label %42

42:                                               ; preds = %41, %7
  %43 = getelementptr inbounds %class.PhaseChaitin, ptr %16, i32 0, i32 16
  %44 = load i8, ptr %43, align 8
  %45 = trunc i8 %44 to i1
  %46 = zext i1 %45 to i32
  %47 = icmp eq i32 %46, 0
  br i1 %47, label %48, label %49

48:                                               ; preds = %42
  br label %49

49:                                               ; preds = %48, %42
  ret void
}