; Function Attrs: mustprogress nounwind uwtable
define hidden void @_ZN12PhaseChaitin14lower_pressureEP5BlockjR3LRGP8IndexSetRNS_8PressureES7_(ptr nocapture nonnull readnone align 8 %0, ptr nocapture readnone %1, i32 noundef %2, ptr noundef nonnull align 8 dereferenceable(168) %3, ptr nocapture readnone %4, ptr nocapture noundef nonnull align 4 dereferenceable(20) %5, ptr nocapture noundef nonnull align 4 dereferenceable(20) %6) local_unnamed_addr #0 align 2 {
  %8 = getelementptr inbounds i8, ptr %3, i64 56
  %9 = tail call noundef zeroext i1 @_ZNK7RegMask5is_UPEv(ptr noundef nonnull align 8 dereferenceable(96) %8) #13
  %10 = getelementptr inbounds i8, ptr %3, i64 152
  %11 = load i32, ptr %10, align 8
  %12 = icmp ne i32 %11, 0
  %13 = select i1 %9, i1 %12, i1 false
  br i1 %13, label %14, label %_ZN12PhaseChaitin8Pressure5lowerER3LRGRj.exit

14:                                               ; preds = %7
  %15 = getelementptr inbounds i8, ptr %3, i64 166
  %16 = load i16, ptr %15, align 2
  %17 = and i16 %16, 6
  %.not = icmp eq i16 %17, 0
  br i1 %.not, label %27, label %18

18:                                               ; preds = %14
  %19 = getelementptr inbounds i8, ptr %3, i64 164
  %20 = load i16, ptr %19, align 4
  %21 = zext i16 %20 to i32
  %22 = load i32, ptr %6, align 4
  %23 = sub i32 %22, %21
  store i32 %23, ptr %6, align 4
  %24 = getelementptr inbounds i8, ptr %6, i64 12
  %25 = load i32, ptr %24, align 4
  %26 = icmp eq i32 %23, %25
  br i1 %26, label %_ZN12PhaseChaitin8Pressure5lowerER3LRGRj.exit.sink.split, label %_ZN12PhaseChaitin8Pressure5lowerER3LRGRj.exit

27:                                               ; preds = %14
  %28 = load ptr, ptr getelementptr inbounds (i8, ptr @_ZN7Matcher16idealreg2regmaskE, i64 24), align 8
  %29 = getelementptr inbounds i8, ptr %3, i64 148
  %30 = load i32, ptr %29, align 4
  %31 = getelementptr inbounds i8, ptr %28, i64 92
  %32 = load i32, ptr %31, align 4
  %33 = tail call noundef i32 @llvm.umin.i32(i32 %30, i32 %32)
  %34 = getelementptr inbounds i8, ptr %3, i64 144
  %35 = load i32, ptr %34, align 8
  %36 = getelementptr inbounds i8, ptr %28, i64 88
  %37 = load i32, ptr %36, align 8
  %38 = tail call noundef i32 @llvm.umax.i32(i32 %35, i32 %37)
  %.not12.i = icmp ugt i32 %38, %33
  br i1 %.not12.i, label %_ZNK7RegMask7overlapERKS_.exit.thread, label %.lr.ph.i

.lr.ph.i:                                         ; preds = %27, %.lr.ph.i
  %.014.i = phi i32 [ %46, %.lr.ph.i ], [ %38, %27 ]
  %.01113.i = phi i64 [ %45, %.lr.ph.i ], [ 0, %27 ]
  %39 = zext i32 %.014.i to i64
  %40 = getelementptr inbounds [11 x i64], ptr %8, i64 0, i64 %39
  %41 = load i64, ptr %40, align 8
  %42 = getelementptr inbounds [11 x i64], ptr %28, i64 0, i64 %39
  %43 = load i64, ptr %42, align 8
  %44 = and i64 %43, %41
  %45 = or i64 %44, %.01113.i
  %46 = add i32 %.014.i, 1
  %.not.i = icmp ugt i32 %46, %33
  br i1 %.not.i, label %_ZNK7RegMask7overlapERKS_.exit, label %.lr.ph.i, !llvm.loop !15

_ZNK7RegMask7overlapERKS_.exit:                   ; preds = %.lr.ph.i
  %.not22 = icmp eq i64 %45, 0
  br i1 %.not22, label %_ZNK7RegMask7overlapERKS_.exit.thread, label %65

_ZNK7RegMask7overlapERKS_.exit.thread:            ; preds = %27, %_ZNK7RegMask7overlapERKS_.exit
  %47 = load i64, ptr @_ZN19Abstract_VM_Version9_featuresE, align 8
  %48 = and i64 %47, 134217728
  %.not23 = icmp eq i64 %48, 0
  br i1 %.not23, label %_ZN12PhaseChaitin8Pressure5lowerER3LRGRj.exit, label %49

49:                                               ; preds = %_ZNK7RegMask7overlapERKS_.exit.thread
  %50 = load ptr, ptr getelementptr inbounds (i8, ptr @_ZN7Matcher16idealreg2regmaskE, i64 112), align 8
  %51 = getelementptr inbounds i8, ptr %50, i64 92
  %52 = load i32, ptr %51, align 4
  %53 = tail call noundef i32 @llvm.umin.i32(i32 %30, i32 %52)
  %54 = getelementptr inbounds i8, ptr %50, i64 88
  %55 = load i32, ptr %54, align 8
  %56 = tail call noundef i32 @llvm.umax.i32(i32 %35, i32 %55)
  %.not12.i10 = icmp ugt i32 %56, %53
  br i1 %.not12.i10, label %_ZN12PhaseChaitin8Pressure5lowerER3LRGRj.exit, label %.lr.ph.i11

.lr.ph.i11:                                       ; preds = %49, %.lr.ph.i11
  %.014.i12 = phi i32 [ %64, %.lr.ph.i11 ], [ %56, %49 ]
  %.01113.i13 = phi i64 [ %63, %.lr.ph.i11 ], [ 0, %49 ]
  %57 = zext i32 %.014.i12 to i64
  %58 = getelementptr inbounds [11 x i64], ptr %8, i64 0, i64 %57
  %59 = load i64, ptr %58, align 8
  %60 = getelementptr inbounds [11 x i64], ptr %50, i64 0, i64 %57
  %61 = load i64, ptr %60, align 8
  %62 = and i64 %61, %59
  %63 = or i64 %62, %.01113.i13
  %64 = add i32 %.014.i12, 1
  %.not.i14 = icmp ugt i32 %64, %53
  br i1 %.not.i14, label %_ZNK7RegMask7overlapERKS_.exit17, label %.lr.ph.i11, !llvm.loop !15

_ZNK7RegMask7overlapERKS_.exit17:                 ; preds = %.lr.ph.i11
  %.not24 = icmp eq i64 %63, 0
  br i1 %.not24, label %_ZN12PhaseChaitin8Pressure5lowerER3LRGRj.exit, label %65

65:                                               ; preds = %_ZNK7RegMask7overlapERKS_.exit17, %_ZNK7RegMask7overlapERKS_.exit
  %66 = getelementptr inbounds i8, ptr %3, i64 164
  %67 = load i16, ptr %66, align 4
  %68 = zext i16 %67 to i32
  %69 = load i32, ptr %5, align 4
  %70 = sub i32 %69, %68
  store i32 %70, ptr %5, align 4
  %71 = getelementptr inbounds i8, ptr %5, i64 12
  %72 = load i32, ptr %71, align 4
  %73 = icmp eq i32 %70, %72
  br i1 %73, label %_ZN12PhaseChaitin8Pressure5lowerER3LRGRj.exit.sink.split, label %_ZN12PhaseChaitin8Pressure5lowerER3LRGRj.exit

_ZN12PhaseChaitin8Pressure5lowerER3LRGRj.exit.sink.split: ; preds = %65, %18
  %.sink28 = phi ptr [ %6, %18 ], [ %5, %65 ]
  %74 = getelementptr inbounds i8, ptr %.sink28, i64 4
  store i32 %2, ptr %74, align 4
  br label %_ZN12PhaseChaitin8Pressure5lowerER3LRGRj.exit

_ZN12PhaseChaitin8Pressure5lowerER3LRGRj.exit:    ; preds = %_ZN12PhaseChaitin8Pressure5lowerER3LRGRj.exit.sink.split, %49, %65, %18, %_ZNK7RegMask7overlapERKS_.exit17, %_ZNK7RegMask7overlapERKS_.exit.thread, %7
  ret void
}